; Function Attrs: nounwind uwtable
define ptr @zend_ini_str_ex(ptr noundef %0, i64 noundef %1, i1 noundef zeroext %2, ptr noundef writeonly %3) local_unnamed_addr #0 {
  %5 = load ptr, ptr getelementptr inbounds (%struct._zend_executor_globals, ptr @executor_globals, i64 0, i32 46), align 8
  %6 = tail call ptr @zend_hash_str_find(ptr noundef %5, ptr noundef %0, i64 noundef %1) #20
  %.not = icmp eq ptr %6, null
  br i1 %.not, label %20, label %7

7:                                                ; preds = %4
  %8 = load ptr, ptr %6, align 8, !nonnull !5, !noundef !5
  %.not27 = icmp eq ptr %3, null
  br i1 %.not27, label %10, label %9

9:                                                ; preds = %7
  store i8 1, ptr %3, align 1
  br label %10

10:                                               ; preds = %9, %7
  br i1 %2, label %11, label %17

11:                                               ; preds = %10
  %12 = getelementptr inbounds i8, ptr %8, i64 70
  %13 = load i8, ptr %12, align 2
  %.not28 = icmp eq i8 %13, 0
  br i1 %.not28, label %17, label %14

14:                                               ; preds = %11
  %15 = getelementptr inbounds i8, ptr %8, i64 48
  %16 = load ptr, ptr %15, align 8
  br label %22

17:                                               ; preds = %11, %10
  %18 = getelementptr inbounds i8, ptr %8, i64 40
  %19 = load ptr, ptr %18, align 8
  br label %22

20:                                               ; preds = %4
  %.not26 = icmp eq ptr %3, null
  br i1 %.not26, label %22, label %21

21:                                               ; preds = %20
  store i8 0, ptr %3, align 1
  br label %22

22:                                               ; preds = %20, %21, %17, %14
  %.020 = phi ptr [ %16, %14 ], [ %19, %17 ], [ null, %21 ], [ null, %20 ]
  ret ptr %.020
}